###############################################################################
#                                                                             #
# IAR C/C++ Compiler V8.10.3.10338/W32 for 8051         20/Nov/2018  10:42:49 #
# Copyright 2004-2011 IAR Systems AB.                                         #
#                                                                             #
#    Core               =  plain                                              #
#    Code model         =  banked                                             #
#    Data model         =  large                                              #
#    Calling convention =  xdata reentrant                                    #
#    Constant location  =  data_rom                                           #
#    Dptr setup         =  1,16                                               #
#    Source file        =  G:\Workspace\IAR_Zigbee\2018.11.19\enddevice\ZStac #
#                          k-CC2530-2.3.0-1.4.0\Projects\zstack\Samples\Sampl #
#                          eApp\Source\SampleApp.c                            #
#    Command line       =  -f G:\Workspace\IAR_Zigbee\2018.11.19\enddevice\ZS #
#                          tack-CC2530-2.3.0-1.4.0\Projects\zstack\Samples\Sa #
#                          mpleApp\CC2530DB\..\..\..\Tools\CC2530DB\f8wCoord. #
#                          cfg (-DCPU32MHZ -DROOT=__near_func                 #
#                          -DMAC_CFG_APP_PENDING_QUEUE=TRUE                   #
#                          -DZDO_COORDINATOR -DRTR_NWK -DBLINK_LEDS) -f       #
#                          G:\Workspace\IAR_Zigbee\2018.11.19\enddevice\ZStac #
#                          k-CC2530-2.3.0-1.4.0\Projects\zstack\Samples\Sampl #
#                          eApp\CC2530DB\..\..\..\Tools\CC2530DB\f8wConfig.cf #
#                          g (-DSECURE=0 -DZG_SECURE_DYNAMIC=0 -DREFLECTOR    #
#                          -DDEFAULT_CHANLIST=0x00000800                      #
#                          -DZDAPP_CONFIG_PAN_ID=0xFFF1                       #
#                          -DNWK_START_DELAY=100 -DEXTENDED_JOINING_RANDOM_MA #
#                          SK=0x007F -DBEACON_REQUEST_DELAY=100               #
#                          -DBEACON_REQ_DELAY_MASK=0x00FF                     #
#                          -DROUTE_EXPIRY_TIME=30 -DAPSC_ACK_WAIT_DURATION_PO #
#                          LLED=3000 -DNWK_INDIRECT_MSG_TIMEOUT=7             #
#                          -DMAX_RREQ_ENTRIES=8 -DAPSC_MAX_FRAME_RETRIES=3    #
#                          -DNWK_MAX_DATA_RETRIES=2                           #
#                          -DMAX_POLL_FAILURE_RETRIES=2 -DMAX_BCAST=9         #
#                          -DAPS_MAX_GROUPS=16 -DMAX_RTG_ENTRIES=40           #
#                          -DNWK_MAX_BINDING_ENTRIES=4                        #
#                          -DMAX_BINDING_CLUSTER_IDS=4 "-DDEFAULT_KEY={0x01,  #
#                          0x03, 0x05, 0x07, 0x09, 0x0B, 0x0D, 0x0F, 0x00,    #
#                          0x02, 0x04, 0x06, 0x08, 0x0A, 0x0C, 0x0D}"         #
#                          -DMAC_MAX_FRAME_SIZE=116 "-DCONST=const __code"    #
#                          -DGENERIC=__generic -DRFD_RCVC_ALWAYS_ON=FALSE     #
#                          -DPOLL_RATE=1000 -DQUEUED_POLL_RATE=100            #
#                          -DRESPONSE_POLL_RATE=100) -DREJOIN_POLL_RATE=440   #
#                          G:\Workspace\IAR_Zigbee\2018.11.19\enddevice\ZStac #
#                          k-CC2530-2.3.0-1.4.0\Projects\zstack\Samples\Sampl #
#                          eApp\Source\SampleApp.c -D ZIGBEEPRO -D ZTOOL_P1   #
#                          -D xMT_TASK -D xMT_SYS_FUNC -D xMT_ZDO_FUNC -D     #
#                          LCD_SUPPORTED=DEBUG -lC G:\Workspace\IAR_Zigbee\20 #
#                          18.11.19\enddevice\ZStack-CC2530-2.3.0-1.4.0\Proje #
#                          cts\zstack\Samples\SampleApp\CC2530DB\CoordinatorE #
#                          B-Pro\List\ -lA G:\Workspace\IAR_Zigbee\2018.11.19 #
#                          \enddevice\ZStack-CC2530-2.3.0-1.4.0\Projects\zsta #
#                          ck\Samples\SampleApp\CC2530DB\CoordinatorEB-Pro\Li #
#                          st\ --diag_suppress Pe001,Pa010 -o                 #
#                          G:\Workspace\IAR_Zigbee\2018.11.19\enddevice\ZStac #
#                          k-CC2530-2.3.0-1.4.0\Projects\zstack\Samples\Sampl #
#                          eApp\CC2530DB\CoordinatorEB-Pro\Obj\ -e --debug    #
#                          --core=plain --dptr=16,1 --data_model=large        #
#                          --code_model=banked --calling_convention=xdata_ree #
#                          ntrant --place_constants=data_rom                  #
#                          --nr_virtual_regs 16 -I G:\Workspace\IAR_Zigbee\20 #
#                          18.11.19\enddevice\ZStack-CC2530-2.3.0-1.4.0\Proje #
#                          cts\zstack\Samples\SampleApp\CC2530DB\ -I          #
#                          G:\Workspace\IAR_Zigbee\2018.11.19\enddevice\ZStac #
#                          k-CC2530-2.3.0-1.4.0\Projects\zstack\Samples\Sampl #
#                          eApp\CC2530DB\..\SOURCE\ -I                        #
#                          G:\Workspace\IAR_Zigbee\2018.11.19\enddevice\ZStac #
#                          k-CC2530-2.3.0-1.4.0\Projects\zstack\Samples\Sampl #
#                          eApp\CC2530DB\..\..\..\ZMAIN\TI2530DB\ -I          #
#                          G:\Workspace\IAR_Zigbee\2018.11.19\enddevice\ZStac #
#                          k-CC2530-2.3.0-1.4.0\Projects\zstack\Samples\Sampl #
#                          eApp\CC2530DB\..\..\..\..\..\COMPONENTS\MT\ -I     #
#                          G:\Workspace\IAR_Zigbee\2018.11.19\enddevice\ZStac #
#                          k-CC2530-2.3.0-1.4.0\Projects\zstack\Samples\Sampl #
#                          eApp\CC2530DB\..\..\..\..\..\COMPONENTS\HAL\INCLUD #
#                          E\ -I G:\Workspace\IAR_Zigbee\2018.11.19\enddevice #
#                          \ZStack-CC2530-2.3.0-1.4.0\Projects\zstack\Samples #
#                          \SampleApp\CC2530DB\..\..\..\..\..\COMPONENTS\HAL\ #
#                          TARGET\CC2530EB\ -I G:\Workspace\IAR_Zigbee\2018.1 #
#                          1.19\enddevice\ZStack-CC2530-2.3.0-1.4.0\Projects\ #
#                          zstack\Samples\SampleApp\CC2530DB\..\..\..\..\..\C #
#                          OMPONENTS\OSAL\MCU\CCSOC\ -I                       #
#                          G:\Workspace\IAR_Zigbee\2018.11.19\enddevice\ZStac #
#                          k-CC2530-2.3.0-1.4.0\Projects\zstack\Samples\Sampl #
#                          eApp\CC2530DB\..\..\..\..\..\COMPONENTS\OSAL\INCLU #
#                          DE\ -I G:\Workspace\IAR_Zigbee\2018.11.19\enddevic #
#                          e\ZStack-CC2530-2.3.0-1.4.0\Projects\zstack\Sample #
#                          s\SampleApp\CC2530DB\..\..\..\..\..\COMPONENTS\STA #
#                          CK\AF\ -I G:\Workspace\IAR_Zigbee\2018.11.19\endde #
#                          vice\ZStack-CC2530-2.3.0-1.4.0\Projects\zstack\Sam #
#                          ples\SampleApp\CC2530DB\..\..\..\..\..\COMPONENTS\ #
#                          STACK\NWK\ -I G:\Workspace\IAR_Zigbee\2018.11.19\e #
#                          nddevice\ZStack-CC2530-2.3.0-1.4.0\Projects\zstack #
#                          \Samples\SampleApp\CC2530DB\..\..\..\..\..\COMPONE #
#                          NTS\STACK\SEC\ -I G:\Workspace\IAR_Zigbee\2018.11. #
#                          19\enddevice\ZStack-CC2530-2.3.0-1.4.0\Projects\zs #
#                          tack\Samples\SampleApp\CC2530DB\..\..\..\..\..\COM #
#                          PONENTS\STACK\SAPI\ -I G:\Workspace\IAR_Zigbee\201 #
#                          8.11.19\enddevice\ZStack-CC2530-2.3.0-1.4.0\Projec #
#                          ts\zstack\Samples\SampleApp\CC2530DB\..\..\..\..\. #
#                          .\COMPONENTS\STACK\SYS\ -I                         #
#                          G:\Workspace\IAR_Zigbee\2018.11.19\enddevice\ZStac #
#                          k-CC2530-2.3.0-1.4.0\Projects\zstack\Samples\Sampl #
#                          eApp\CC2530DB\..\..\..\..\..\COMPONENTS\STACK\ZDO\ #
#                           -I G:\Workspace\IAR_Zigbee\2018.11.19\enddevice\Z #
#                          Stack-CC2530-2.3.0-1.4.0\Projects\zstack\Samples\S #
#                          ampleApp\CC2530DB\..\..\..\..\..\COMPONENTS\ZMAC\F #
#                          8W\ -I G:\Workspace\IAR_Zigbee\2018.11.19\enddevic #
#                          e\ZStack-CC2530-2.3.0-1.4.0\Projects\zstack\Sample #
#                          s\SampleApp\CC2530DB\..\..\..\..\..\COMPONENTS\ZMA #
#                          C\ -I G:\Workspace\IAR_Zigbee\2018.11.19\enddevice #
#                          \ZStack-CC2530-2.3.0-1.4.0\Projects\zstack\Samples #
#                          \SampleApp\CC2530DB\..\..\..\..\..\COMPONENTS\SERV #
#                          ICES\SADDR\ -I G:\Workspace\IAR_Zigbee\2018.11.19\ #
#                          enddevice\ZStack-CC2530-2.3.0-1.4.0\Projects\zstac #
#                          k\Samples\SampleApp\CC2530DB\..\..\..\..\..\COMPON #
#                          ENTS\SERVICES\SDATA\ -I G:\Workspace\IAR_Zigbee\20 #
#                          18.11.19\enddevice\ZStack-CC2530-2.3.0-1.4.0\Proje #
#                          cts\zstack\Samples\SampleApp\CC2530DB\..\..\..\..\ #
#                          ..\COMPONENTS\MAC\INCLUDE\ -I                      #
#                          G:\Workspace\IAR_Zigbee\2018.11.19\enddevice\ZStac #
#                          k-CC2530-2.3.0-1.4.0\Projects\zstack\Samples\Sampl #
#                          eApp\CC2530DB\..\..\..\..\..\COMPONENTS\MAC\HIGH_L #
#                          EVEL\ -I G:\Workspace\IAR_Zigbee\2018.11.19\enddev #
#                          ice\ZStack-CC2530-2.3.0-1.4.0\Projects\zstack\Samp #
#                          les\SampleApp\CC2530DB\..\..\..\..\..\COMPONENTS\M #
#                          AC\LOW_LEVEL\srf04\ -I G:\Workspace\IAR_Zigbee\201 #
#                          8.11.19\enddevice\ZStack-CC2530-2.3.0-1.4.0\Projec #
#                          ts\zstack\Samples\SampleApp\CC2530DB\..\..\..\..\. #
#                          .\COMPONENTS\MAC\LOW_LEVEL\srf04\SINGLE_CHIP\      #
#                          -Ohz --require_prototypes                          #
#    List file          =  G:\Workspace\IAR_Zigbee\2018.11.19\enddevice\ZStac #
#                          k-CC2530-2.3.0-1.4.0\Projects\zstack\Samples\Sampl #
#                          eApp\CC2530DB\CoordinatorEB-Pro\List\SampleApp.lst #
#    Object file        =  G:\Workspace\IAR_Zigbee\2018.11.19\enddevice\ZStac #
#                          k-CC2530-2.3.0-1.4.0\Projects\zstack\Samples\Sampl #
#                          eApp\CC2530DB\CoordinatorEB-Pro\Obj\SampleApp.r51  #
#                                                                             #
#                                                                             #
###############################################################################

G:\Workspace\IAR_Zigbee\2018.11.19\enddevice\ZStack-CC2530-2.3.0-1.4.0\Projects\zstack\Samples\SampleApp\Source\SampleApp.c
      1          /**************************************************************************************************
      2            Filename:       SampleApp.c
      3            Revised:        $Date: 2009-03-18 15:56:27 -0700 (Wed, 18 Mar 2009) $
      4            Revision:       $Revision: 19453 $
      5          
      6            Description:    Sample Application (no Profile).
      7          
      8          
      9            Copyright 2007 Texas Instruments Incorporated. All rights reserved.
     10          
     11            IMPORTANT: Your use of this Software is limited to those specific rights
     12            granted under the terms of a software license agreement between the user
     13            who downloaded the software, his/her employer (which must be your employer)
     14            and Texas Instruments Incorporated (the "License").  You may not use this
     15            Software unless you agree to abide by the terms of the License. The License
     16            limits your use, and you acknowledge, that the Software may not be modified,
     17            copied or distributed unless embedded on a Texas Instruments microcontroller
     18            or used solely and exclusively in conjunction with a Texas Instruments radio
     19            frequency transceiver, which is integrated into your product.  Other than for
     20            the foregoing purpose, you may not use, reproduce, copy, prepare derivative
     21            works of, modify, distribute, perform, display or sell this Software and/or
     22            its documentation for any purpose.
     23          
     24            YOU FURTHER ACKNOWLEDGE AND AGREE THAT THE SOFTWARE AND DOCUMENTATION ARE
     25            PROVIDED AS IS?WITHOUT WARRANTY OF ANY KIND, EITHER EXPRESS OR IMPLIED,
     26            INCLUDING WITHOUT LIMITATION, ANY WARRANTY OF MERCHANTABILITY, TITLE,
     27            NON-INFRINGEMENT AND FITNESS FOR A PARTICULAR PURPOSE. IN NO EVENT SHALL
     28            TEXAS INSTRUMENTS OR ITS LICENSORS BE LIABLE OR OBLIGATED UNDER CONTRACT,
     29            NEGLIGENCE, STRICT LIABILITY, CONTRIBUTION, BREACH OF WARRANTY, OR OTHER
     30            LEGAL EQUITABLE THEORY ANY DIRECT OR INDIRECT DAMAGES OR EXPENSES
     31            INCLUDING BUT NOT LIMITED TO ANY INCIDENTAL, SPECIAL, INDIRECT, PUNITIVE
     32            OR CONSEQUENTIAL DAMAGES, LOST PROFITS OR LOST DATA, COST OF PROCUREMENT
     33            OF SUBSTITUTE GOODS, TECHNOLOGY, SERVICES, OR ANY CLAIMS BY THIRD PARTIES
     34            (INCLUDING BUT NOT LIMITED TO ANY DEFENSE THEREOF), OR OTHER SIMILAR COSTS.
     35          
     36            Should you have any questions regarding your right to use this Software,
     37            contact Texas Instruments Incorporated at www.TI.com.
     38          **************************************************************************************************/
     39          
     40          /*********************************************************************
     41            This application isn't intended to do anything useful, it is
     42            intended to be a simple example of an application's structure.
     43          
     44            This application sends it's messages either as broadcast or
     45            broadcast filtered group messages.  The other (more normal)
     46            message addressing is unicast.  Most of the other sample
     47            applications are written to support the unicast message model.
     48          
     49            Key control:
     50              SW1:  Sends a flash command to all devices in Group 1.
     51              SW2:  Adds/Removes (toggles) this device in and out
     52                    of Group 1.  This will enable and disable the
     53                    reception of the flash command.
     54          *********************************************************************/
     55          
     56          /*********************************************************************
     57           * INCLUDES
     58           */
     59          #include "OSAL.h"
     60          #include "ZGlobals.h"
     61          #include "AF.h"
     62          #include "aps_groups.h"
     63          #include "ZDApp.h"
     64          
     65          #include "SampleApp.h"
     66          #include "SampleAppHw.h"
     67          
     68          #include "OnBoard.h"
     69          
     70          /* HAL */
     71          #include "hal_lcd.h"
     72          #include "hal_led.h"
     73          #include "hal_key.h"
     74          #include "MT_UART.h"
     75          #include "MT_APP.h"
     76          #include "MT.h"
     77          
     78          /*********************************************************************
     79           * MACROS
     80           */
     81          
     82          /*********************************************************************
     83           * CONSTANTS
     84           */
     85          
     86          /*********************************************************************
     87           * TYPEDEFS
     88           */
     89          
     90          /*********************************************************************
     91           * GLOBAL VARIABLES
     92           */
     93          
     94          // This list should be filled with Application specific Cluster IDs.

   \                                 In  segment XDATA_ROM_C, align 1
     95          const cId_t SampleApp_ClusterList[SAMPLEAPP_MAX_CLUSTERS] =
   \                     SampleApp_ClusterList:
   \   000000   0100         DW 1
   \   000002   0200         DW 2
     96          {
     97            SAMPLEAPP_PERIODIC_CLUSTERID,
     98            SAMPLEAPP_FLASH_CLUSTERID
     99          };
    100          

   \                                 In  segment XDATA_ROM_C, align 1
    101          const SimpleDescriptionFormat_t SampleApp_SimpleDesc =
   \                     SampleApp_SimpleDesc:
   \   000000   14           DB 20
   \   000001   080F         DW 3848
   \   000003   0100         DW 1
   \   000005   00           DB 0
   \   000006   02           DB 2
   \   000007   ....         DW SampleApp_ClusterList
   \   000009   02           DB 2
   \   00000A   ....         DW SampleApp_ClusterList
    102          {
    103            SAMPLEAPP_ENDPOINT,              //  int Endpoint;
    104            SAMPLEAPP_PROFID,                //  uint16 AppProfId[2];
    105            SAMPLEAPP_DEVICEID,              //  uint16 AppDeviceId[2];
    106            SAMPLEAPP_DEVICE_VERSION,        //  int   AppDevVer:4;
    107            SAMPLEAPP_FLAGS,                 //  int   AppFlags:4;
    108            SAMPLEAPP_MAX_CLUSTERS,          //  uint8  AppNumInClusters;
    109            (cId_t *)SampleApp_ClusterList,  //  uint8 *pAppInClusterList;
    110            SAMPLEAPP_MAX_CLUSTERS,          //  uint8  AppNumInClusters;
    111            (cId_t *)SampleApp_ClusterList   //  uint8 *pAppInClusterList;
    112          };
    113          
    114          // This is the Endpoint/Interface description.  It is defined here, but
    115          // filled-in in SampleApp_Init().  Another way to go would be to fill
    116          // in the structure here and make it a "const" (in code space).  The
    117          // way it's defined in this sample app it is define in RAM.

   \                                 In  segment XDATA_Z, align 1, keep-with-next
    118          endPointDesc_t SampleApp_epDesc;
   \                     SampleApp_epDesc:
   \   000000                DS 6
   \   000006                REQUIRE __INIT_XDATA_Z
    119          
    120          /*********************************************************************
    121           * EXTERNAL VARIABLES
    122           */
    123          
    124          /*********************************************************************
    125           * EXTERNAL FUNCTIONS
    126           */
    127          
    128          /*********************************************************************
    129           * LOCAL VARIABLES
    130           */

   \                                 In  segment XDATA_Z, align 1, keep-with-next
    131          uint8 SampleApp_TaskID;   // Task ID for internal task/event processing
   \                     SampleApp_TaskID:
   \   000000                DS 1
   \   000001                REQUIRE __INIT_XDATA_Z
    132                                    // This variable will be received when
    133                                    // SampleApp_Init() is called.

   \                                 In  segment XDATA_Z, align 1, keep-with-next
    134          devStates_t SampleApp_NwkState;
   \                     SampleApp_NwkState:
   \   000000                DS 1
   \   000001                REQUIRE __INIT_XDATA_Z
    135          

   \                                 In  segment XDATA_Z, align 1, keep-with-next
    136          uint8 SampleApp_TransID;  // This is the unique message ID (counter)
   \                     SampleApp_TransID:
   \   000000                DS 1
   \   000001                REQUIRE __INIT_XDATA_Z
    137          

   \                                 In  segment XDATA_Z, align 1, keep-with-next
    138          afAddrType_t SampleApp_Periodic_DstAddr;
   \                     SampleApp_Periodic_DstAddr:
   \   000000                DS 12
   \   00000C                REQUIRE __INIT_XDATA_Z

   \                                 In  segment XDATA_Z, align 1, keep-with-next
    139          afAddrType_t SampleApp_Flash_DstAddr;
   \                     SampleApp_Flash_DstAddr:
   \   000000                DS 12
   \   00000C                REQUIRE __INIT_XDATA_Z
    140          //afAddrType_t SampleApp_P2P_DstAddr;
    141          

   \                                 In  segment XDATA_Z, align 1, keep-with-next
    142          aps_Group_t SampleApp_Group;
   \                     SampleApp_Group:
   \   000000                DS 18
   \   000012                REQUIRE __INIT_XDATA_Z
    143          

   \                                 In  segment XDATA_Z, align 1, keep-with-next
    144          uint8 SampleAppPeriodicCounter = 0;
   \                     SampleAppPeriodicCounter:
   \   000000                DS 1
   \   000001                REQUIRE __INIT_XDATA_Z

   \                                 In  segment XDATA_Z, align 1, keep-with-next
    145          uint8 SampleAppFlashCounter = 0;
   \                     SampleAppFlashCounter:
   \   000000                DS 1
   \   000001                REQUIRE __INIT_XDATA_Z
    146          
    147          /*********************************************************************
    148           * LOCAL FUNCTIONS
    149           */
    150          void SampleApp_HandleKeys( uint8 shift, uint8 keys );
    151          void SampleApp_MessageMSGCB( afIncomingMSGPacket_t *pckt );
    152          void SampleApp_SendPeriodicMessage( afIncomingMSGPacket_t *pkt );
    153          void SampleApp_SendFlashMessage( uint16 flashTime );
    154          //void SampleApp_Send_P2P_Message( void );
    155          void SampleApp_SerialCMD(mtOSALSerialData_t *cmdMsg);
    156          
    157          /*********************************************************************
    158           * NETWORK LAYER CALLBACKS
    159           */
    160          
    161          /*********************************************************************
    162           * PUBLIC FUNCTIONS
    163           */
    164          
    165          /*********************************************************************
    166           * @fn      SampleApp_Init
    167           *
    168           * @brief   Initialization function for the Generic App Task.
    169           *          This is called during initialization and should contain
    170           *          any application specific initialization (ie. hardware
    171           *          initialization/setup, table initialization, power up
    172           *          notificaiton ... ).
    173           *
    174           * @param   task_id - the ID assigned by OSAL.  This ID should be
    175           *                    used to send messages and set timers.
    176           *
    177           * @return  none
    178           */

   \                                 In  segment BANKED_CODE, align 1, keep-with-next
    179          void SampleApp_Init( uint8 task_id )
   \                     SampleApp_Init:
    180          { 
   \   000000   74F5         MOV     A,#-0xb
   \   000002   12....       LCALL   ?BANKED_ENTER_XDATA
   \   000005                ; Saved register size: 11
   \   000005                ; Auto size: 0
   \   000005   E9           MOV     A,R1
   \   000006   FE           MOV     R6,A
    181            SampleApp_TaskID = task_id;
   \   000007   90....       MOV     DPTR,#SampleApp_TaskID
   \   00000A   F0           MOVX    @DPTR,A
    182            SampleApp_NwkState = DEV_INIT;
   \   00000B   90....       MOV     DPTR,#SampleApp_NwkState
   \   00000E   7401         MOV     A,#0x1
   \   000010   F0           MOVX    @DPTR,A
    183            SampleApp_TransID = 0;
   \   000011   90....       MOV     DPTR,#SampleApp_TransID
   \   000014   E4           CLR     A
   \   000015   F0           MOVX    @DPTR,A
    184            
    185            MT_UartInit();                  //串口初始化
   \   000016                ; Setup parameters for call to function MT_UartInit
   \   000016   12....       LCALL   ??MT_UartInit?relay
    186            MT_UartRegisterTaskID(task_id); //注册串口任务
   \   000019                ; Setup parameters for call to function MT_UartRegisterTaskID
   \   000019   EE           MOV     A,R6
   \   00001A   F9           MOV     R1,A
   \   00001B   12....       LCALL   ??MT_UartRegisterTaskID?relay
    187            HalUARTWrite(0,"UartInit OK\n", sizeof("UartInit OK\n"));//提示信息
   \   00001E                ; Setup parameters for call to function HalUARTWrite
   \   00001E   7C0D         MOV     R4,#0xd
   \   000020   7D00         MOV     R5,#0x0
   \   000022   7A..         MOV     R2,#`?<Constant "UartInit OK\\n">` & 0xff
   \   000024   7B..         MOV     R3,#(`?<Constant "UartInit OK\\n">` >> 8) & 0xff
   \   000026   7900         MOV     R1,#0x0
   \   000028   12....       LCALL   ??HalUARTWrite?relay
    188            
    189            // Device hardware initialization can be added here or in main() (Zmain.c).
    190            // If the hardware is application specific - add it here.
    191            // If the hardware is other parts of the device add it in main().
    192          
    193           #if defined ( BUILD_ALL_DEVICES )
    194            // The "Demo" target is setup to have BUILD_ALL_DEVICES and HOLD_AUTO_START
    195            // We are looking at a jumper (defined in SampleAppHw.c) to be jumpered
    196            // together - if they are - we will start up a coordinator. Otherwise,
    197            // the device will start as a router.
    198            if ( readCoordinatorJumper() )
    199              zgDeviceLogicalType = ZG_DEVICETYPE_COORDINATOR;
    200            else
    201              zgDeviceLogicalType = ZG_DEVICETYPE_ROUTER;
    202          #endif // BUILD_ALL_DEVICES
    203          
    204          #if defined ( HOLD_AUTO_START )
    205            // HOLD_AUTO_START is a compile option that will surpress ZDApp
    206            //  from starting the device and wait for the application to
    207            //  start the device.
    208            ZDOInitDevice(0);
    209          #endif
    210          
    211            // Setup for the periodic message's destination address
    212            // Broadcast to everyone
    213            SampleApp_Periodic_DstAddr.addrMode = (afAddrMode_t)AddrBroadcast;
   \   00002B   90....       MOV     DPTR,#SampleApp_Periodic_DstAddr + 8
   \   00002E   740F         MOV     A,#0xf
   \   000030   F0           MOVX    @DPTR,A
    214            SampleApp_Periodic_DstAddr.endPoint = SAMPLEAPP_ENDPOINT;
   \   000031   A3           INC     DPTR
   \   000032   7414         MOV     A,#0x14
   \   000034   F0           MOVX    @DPTR,A
    215            SampleApp_Periodic_DstAddr.addr.shortAddr = 0xFFFF;
   \   000035   90....       MOV     DPTR,#SampleApp_Periodic_DstAddr
   \   000038   74FF         MOV     A,#-0x1
   \   00003A   F0           MOVX    @DPTR,A
   \   00003B   A3           INC     DPTR
   \   00003C   F0           MOVX    @DPTR,A
    216          
    217            // Setup for the flash command's destination address - Group 1
    218            SampleApp_Flash_DstAddr.addrMode = (afAddrMode_t)afAddrGroup;
   \   00003D   90....       MOV     DPTR,#SampleApp_Flash_DstAddr + 8
   \   000040   7401         MOV     A,#0x1
   \   000042   F0           MOVX    @DPTR,A
    219            SampleApp_Flash_DstAddr.endPoint = SAMPLEAPP_ENDPOINT;
   \   000043   A3           INC     DPTR
   \   000044   7414         MOV     A,#0x14
   \   000046   F0           MOVX    @DPTR,A
    220            SampleApp_Flash_DstAddr.addr.shortAddr = SAMPLEAPP_FLASH_GROUP;
   \   000047   90....       MOV     DPTR,#SampleApp_Flash_DstAddr
   \   00004A   7401         MOV     A,#0x1
   \   00004C   F0           MOVX    @DPTR,A
   \   00004D   A3           INC     DPTR
   \   00004E   E4           CLR     A
   \   00004F   F0           MOVX    @DPTR,A
    221          
    222            // 点播
    223          //  SampleApp_P2P_DstAddr.addrMode = (afAddrMode_t)Addr16Bit;
    224          //  SampleApp_P2P_DstAddr.endPoint = SAMPLEAPP_ENDPOINT;
    225          //  SampleApp_P2P_DstAddr.addr.shortAddr = 0x0000;
    226            
    227            // Fill out the endpoint description.
    228            SampleApp_epDesc.endPoint = SAMPLEAPP_ENDPOINT;
   \   000050   90....       MOV     DPTR,#SampleApp_epDesc
   \   000053   7414         MOV     A,#0x14
   \   000055   F0           MOVX    @DPTR,A
    229            SampleApp_epDesc.task_id = &SampleApp_TaskID;
   \   000056   A3           INC     DPTR
   \   000057   74..         MOV     A,#SampleApp_TaskID & 0xff
   \   000059   F0           MOVX    @DPTR,A
   \   00005A   A3           INC     DPTR
   \   00005B   74..         MOV     A,#(SampleApp_TaskID >> 8) & 0xff
   \   00005D   F0           MOVX    @DPTR,A
    230            SampleApp_epDesc.simpleDesc
    231                      = (SimpleDescriptionFormat_t *)&SampleApp_SimpleDesc;
   \   00005E   A3           INC     DPTR
   \   00005F   74..         MOV     A,#SampleApp_SimpleDesc & 0xff
   \   000061   F0           MOVX    @DPTR,A
   \   000062   A3           INC     DPTR
   \   000063   74..         MOV     A,#(SampleApp_SimpleDesc >> 8) & 0xff
   \   000065   F0           MOVX    @DPTR,A
    232            SampleApp_epDesc.latencyReq = noLatencyReqs;
   \   000066   A3           INC     DPTR
   \   000067   E4           CLR     A
   \   000068   F0           MOVX    @DPTR,A
    233          
    234            // Register the endpoint description with the AF
    235            afRegister( &SampleApp_epDesc );
   \   000069                ; Setup parameters for call to function afRegister
   \   000069   7A..         MOV     R2,#SampleApp_epDesc & 0xff
   \   00006B   7B..         MOV     R3,#(SampleApp_epDesc >> 8) & 0xff
   \   00006D   12....       LCALL   ??afRegister?relay
    236          
    237            // Register for all key events - This app will handle all key events
    238            RegisterForKeys( SampleApp_TaskID );
   \   000070                ; Setup parameters for call to function RegisterForKeys
   \   000070   90....       MOV     DPTR,#SampleApp_TaskID
   \   000073   E0           MOVX    A,@DPTR
   \   000074   F9           MOV     R1,A
   \   000075   12....       LCALL   ??RegisterForKeys?relay
    239          
    240            // By default, all devices start out in Group 1
    241            SampleApp_Group.ID = 0x0001;
   \   000078   90....       MOV     DPTR,#SampleApp_Group
   \   00007B   7401         MOV     A,#0x1
   \   00007D   F0           MOVX    @DPTR,A
   \   00007E   A3           INC     DPTR
   \   00007F   E4           CLR     A
   \   000080   F0           MOVX    @DPTR,A
    242            osal_memcpy( SampleApp_Group.name, "Group 1", 7 );
   \   000081                ; Setup parameters for call to function osal_memcpy
   \   000081   75....       MOV     ?V0 + 0,#`?<Constant "Group 1">` & 0xff
   \   000084   75....       MOV     ?V0 + 1,#(`?<Constant "Group 1">` >> 8) & 0xff
   \   000087   F5..         MOV     ?V0 + 2,A
   \   000089   78..         MOV     R0,#?V0 + 0
   \   00008B   12....       LCALL   ?PUSH_XSTACK_I_THREE
   \   00008E   7C07         MOV     R4,#0x7
   \   000090   7D00         MOV     R5,#0x0
   \   000092   7A..         MOV     R2,#(SampleApp_Group + 2) & 0xff
   \   000094   7B..         MOV     R3,#((SampleApp_Group + 2) >> 8) & 0xff
   \   000096   12....       LCALL   ??Subroutine4_0 & 0xFFFF
   \                     ??CrossCallReturnLabel_3:
   \   000099   12....       LCALL   ?DEALLOC_XSTACK8
    243            aps_AddGroup( SAMPLEAPP_ENDPOINT, &SampleApp_Group );
   \   00009C                ; Setup parameters for call to function aps_AddGroup
   \   00009C   7A..         MOV     R2,#SampleApp_Group & 0xff
   \   00009E   7B..         MOV     R3,#(SampleApp_Group >> 8) & 0xff
   \   0000A0   7914         MOV     R1,#0x14
   \   0000A2   12....       LCALL   ??aps_AddGroup?relay
    244          
    245          #if defined ( LCD_SUPPORTED )
    246            HalLcdWriteString( "SampleApp", HAL_LCD_LINE_1 );
   \   0000A5                ; Setup parameters for call to function HalLcdWriteString
   \   0000A5   7901         MOV     R1,#0x1
   \   0000A7   7A..         MOV     R2,#`?<Constant "SampleApp">` & 0xff
   \   0000A9   7B..         MOV     R3,#(`?<Constant "SampleApp">` >> 8) & 0xff
   \   0000AB   12....       LCALL   ??HalLcdWriteString?relay
    247          #endif
    248          }
   \   0000AE                REQUIRE ?Subroutine0
   \   0000AE                ; // Fall through to label ?Subroutine0

   \                                 In  segment BANKED_CODE, align 1, keep-with-next
   \                     ?Subroutine0:
   \   000000   7F03         MOV     R7,#0x3
   \   000002   02....       LJMP    ?BANKED_LEAVE_XDATA

   \                                 In  segment BANKED_CODE, align 1, keep-with-next
   \                     ??Subroutine4_0:
   \   000000   12....       LCALL   ??osal_memcpy?relay
   \   000003   7403         MOV     A,#0x3
   \   000005   22           RET
    249          
    250          /*********************************************************************
    251           * @fn      SampleApp_ProcessEvent
    252           *
    253           * @brief   Generic Application Task event processor.  This function
    254           *          is called to process all events for the task.  Events
    255           *          include timers, messages and any other user defined events.
    256           *
    257           * @param   task_id  - The OSAL assigned task ID.
    258           * @param   events - events to process.  This is a bit map and can
    259           *                   contain more than one event.
    260           *
    261           * @return  none
    262           */

   \                                 In  segment BANKED_CODE, align 1, keep-with-next
    263          uint16 SampleApp_ProcessEvent( uint8 task_id, uint16 events )
   \                     SampleApp_ProcessEvent:
    264          {
   \   000000   74F4         MOV     A,#-0xc
   \   000002   12....       LCALL   ?BANKED_ENTER_XDATA
   \   000005                ; Saved register size: 12
   \   000005                ; Auto size: 0
   \   000005   EA           MOV     A,R2
   \   000006   FE           MOV     R6,A
   \   000007   EB           MOV     A,R3
   \   000008   FF           MOV     R7,A
    265            afIncomingMSGPacket_t *MSGpkt;
    266            (void)task_id;  // Intentionally unreferenced parameter
    267          
    268            if ( events & SYS_EVENT_MSG )
   \   000009   5480         ANL     A,#0x80
   \   00000B   6074         JZ      ??SampleApp_ProcessEvent_0
    269            {
    270              MSGpkt = (afIncomingMSGPacket_t *)osal_msg_receive( SampleApp_TaskID );
   \   00000D                ; Setup parameters for call to function osal_msg_receive
   \   00000D   8026         SJMP    ??SampleApp_ProcessEvent_1
    271              while ( MSGpkt )
    272              {
    273                switch ( MSGpkt->hdr.event )
    274                {        
    275                  // Received when a key is pressed
    276                  case KEY_CHANGE:
    277                    SampleApp_HandleKeys( ((keyChange_t *)MSGpkt)->state, ((keyChange_t *)MSGpkt)->keys );
    278                    break;
    279          
    280                  // Received when a messages is received (OTA) for this endpoint
    281                  case AF_INCOMING_MSG_CMD:
    282                    SampleApp_MessageMSGCB( MSGpkt );
    283                    break;
    284          
    285                  // Received whenever the device changes state in the network
    286                  case ZDO_STATE_CHANGE:
    287                    SampleApp_NwkState = (devStates_t)(MSGpkt->hdr.status);
   \                     ??SampleApp_ProcessEvent_2:
   \   00000F   A3           INC     DPTR
   \   000010   E0           MOVX    A,@DPTR
   \   000011   90....       MOV     DPTR,#SampleApp_NwkState
   \   000014   F0           MOVX    @DPTR,A
    288                    if ( //(SampleApp_NwkState == DEV_ZB_COORD) ||
    289                           (SampleApp_NwkState == DEV_ROUTER)
    290                        || (SampleApp_NwkState == DEV_END_DEVICE) )
   \   000015   6407         XRL     A,#0x7
   \   000017   6005         JZ      ??SampleApp_ProcessEvent_3
   \   000019   E0           MOVX    A,@DPTR
   \   00001A   6406         XRL     A,#0x6
   \   00001C   7010         JNZ     ??SampleApp_ProcessEvent_4
    291                    {
    292                      // Start sending the periodic message in a regular interval.
    293                      osal_start_timerEx( SampleApp_TaskID,
    294                                        SAMPLEAPP_SEND_PERIODIC_MSG_EVT,
    295                                        SAMPLEAPP_SEND_PERIODIC_MSG_TIMEOUT );
   \                     ??SampleApp_ProcessEvent_3:
   \   00001E                ; Setup parameters for call to function osal_start_timerEx
   \   00001E   7CB8         MOV     R4,#-0x48
   \   000020   7D0B         MOV     R5,#0xb
   \   000022   7A01         MOV     R2,#0x1
   \   000024   7B00         MOV     R3,#0x0
   \   000026   90....       MOV     DPTR,#SampleApp_TaskID
   \   000029   E0           MOVX    A,@DPTR
   \   00002A   F9           MOV     R1,A
   \   00002B   12....       LCALL   ??osal_start_timerEx?relay
    296                    }
    297                    else
    298                    {
    299                      // Device is no longer in the network
    300                    }
    301                    break;
    302          
    303                  default:
    304                    break;
    305                }
    306          
    307                // Release the memory
    308                osal_msg_deallocate( (uint8 *)MSGpkt );
   \                     ??SampleApp_ProcessEvent_4:
   \   00002E                ; Setup parameters for call to function osal_msg_deallocate
   \   00002E   AA..         MOV     R2,?V0 + 0
   \   000030   AB..         MOV     R3,?V0 + 1
   \   000032   12....       LCALL   ??osal_msg_deallocate?relay
    309          
    310                // Next - if one is available
    311                MSGpkt = (afIncomingMSGPacket_t *)osal_msg_receive( SampleApp_TaskID );
   \   000035                ; Setup parameters for call to function osal_msg_receive
   \                     ??SampleApp_ProcessEvent_1:
   \   000035   90....       MOV     DPTR,#SampleApp_TaskID
   \   000038   E0           MOVX    A,@DPTR
   \   000039   F9           MOV     R1,A
   \   00003A   12....       LCALL   ??osal_msg_receive?relay
   \   00003D   8A..         MOV     ?V0 + 0,R2
   \   00003F   8B..         MOV     ?V0 + 1,R3
   \   000041   E5..         MOV     A,?V0 + 0
   \   000043   45..         ORL     A,?V0 + 1
   \   000045   6032         JZ      ??SampleApp_ProcessEvent_5
   \   000047   85..82       MOV     DPL,?V0 + 0
   \   00004A   85..83       MOV     DPH,?V0 + 1
   \   00004D   E0           MOVX    A,@DPTR
   \   00004E   24E6         ADD     A,#-0x1a
   \   000050   601E         JZ      ??SampleApp_ProcessEvent_6
   \   000052   245A         ADD     A,#0x5a
   \   000054   6006         JZ      ??SampleApp_ProcessEvent_7
   \   000056   24EF         ADD     A,#-0x11
   \   000058   60B5         JZ      ??SampleApp_ProcessEvent_2
   \   00005A   80D2         SJMP    ??SampleApp_ProcessEvent_4
   \                     ??SampleApp_ProcessEvent_7:
   \   00005C                ; Setup parameters for call to function SampleApp_HandleKeys
   \   00005C   A3           INC     DPTR
   \   00005D   A3           INC     DPTR
   \   00005E   A3           INC     DPTR
   \   00005F   E0           MOVX    A,@DPTR
   \   000060   FA           MOV     R2,A
   \   000061   85..82       MOV     DPL,?V0 + 0
   \   000064   85..83       MOV     DPH,?V0 + 1
   \   000067   A3           INC     DPTR
   \   000068   A3           INC     DPTR
   \   000069   E0           MOVX    A,@DPTR
   \   00006A   F9           MOV     R1,A
   \   00006B   12....       LCALL   ??SampleApp_HandleKeys?relay
   \   00006E   80BE         SJMP    ??SampleApp_ProcessEvent_4
   \                     ??SampleApp_ProcessEvent_6:
   \   000070                ; Setup parameters for call to function SampleApp_MessageMSGCB
   \   000070   AA..         MOV     R2,?V0 + 0
   \   000072   AB..         MOV     R3,?V0 + 1
   \   000074   12....       LCALL   ??SampleApp_MessageMSGCB?relay
   \   000077   80B5         SJMP    ??SampleApp_ProcessEvent_4
    312              }
    313          
    314              // return unprocessed events
    315              return (events ^ SYS_EVENT_MSG);
   \                     ??SampleApp_ProcessEvent_5:
   \   000079   EE           MOV     A,R6
   \   00007A   FA           MOV     R2,A
   \   00007B   EF           MOV     A,R7
   \   00007C   6480         XRL     A,#0x80
   \                     ??SampleApp_ProcessEvent_8:
   \   00007E   FB           MOV     R3,A
   \   00007F   802E         SJMP    ??SampleApp_ProcessEvent_9
    316            }
    317          
    318            // Send a message out - This event is generated by a timer
    319            //  (setup in SampleApp_Init()).
    320            if ( events & SAMPLEAPP_SEND_PERIODIC_MSG_EVT )
   \                     ??SampleApp_ProcessEvent_0:
   \   000081   EE           MOV     A,R6
   \   000082   A2E0         MOV     C,0xE0 /* A   */.0
   \   000084   5025         JNC     ??SampleApp_ProcessEvent_10
    321            {
    322              // Send the periodic message
    323              SampleApp_SendPeriodicMessage(MSGpkt);
   \   000086                ; Setup parameters for call to function SampleApp_SendPeriodicMessage
   \   000086   AA..         MOV     R2,?V0 + 0
   \   000088   AB..         MOV     R3,?V0 + 1
   \   00008A   12....       LCALL   ??SampleApp_SendPeriodicMessage?relay
    324              //SampleApp_Send_P2P_Message();
    325              // Setup to send message again in normal period (+ a little jitter)
    326              osal_start_timerEx( SampleApp_TaskID, SAMPLEAPP_SEND_PERIODIC_MSG_EVT,
    327                  (SAMPLEAPP_SEND_PERIODIC_MSG_TIMEOUT + (osal_rand() & 0x00FF)) );
   \   00008D                ; Setup parameters for call to function osal_rand
   \   00008D   12....       LCALL   ??osal_rand?relay
   \   000090                ; Setup parameters for call to function osal_start_timerEx
   \   000090   EA           MOV     A,R2
   \   000091   24B8         ADD     A,#-0x48
   \   000093   FC           MOV     R4,A
   \   000094   E4           CLR     A
   \   000095   340B         ADDC    A,#0xb
   \   000097   FD           MOV     R5,A
   \   000098   7A01         MOV     R2,#0x1
   \   00009A   7B00         MOV     R3,#0x0
   \   00009C   90....       MOV     DPTR,#SampleApp_TaskID
   \   00009F   E0           MOVX    A,@DPTR
   \   0000A0   F9           MOV     R1,A
   \   0000A1   12....       LCALL   ??osal_start_timerEx?relay
    328          
    329              // return unprocessed events
    330              return (events ^ SAMPLEAPP_SEND_PERIODIC_MSG_EVT);
   \   0000A4   EE           MOV     A,R6
   \   0000A5   6401         XRL     A,#0x1
   \   0000A7   FA           MOV     R2,A
   \   0000A8   EF           MOV     A,R7
   \   0000A9   80D3         SJMP    ??SampleApp_ProcessEvent_8
    331            }
    332          
    333            // Discard unknown events
    334            return 0;
   \                     ??SampleApp_ProcessEvent_10:
   \   0000AB   7A00         MOV     R2,#0x0
   \   0000AD   7B00         MOV     R3,#0x0
   \                     ??SampleApp_ProcessEvent_9:
   \   0000AF                REQUIRE ?Subroutine1
   \   0000AF                ; // Fall through to label ?Subroutine1
    335          }

   \                                 In  segment BANKED_CODE, align 1, keep-with-next
   \                     ?Subroutine1:
   \   000000   7F04         MOV     R7,#0x4
   \   000002   02....       LJMP    ?BANKED_LEAVE_XDATA
    336          
    337          /*********************************************************************
    338           * Event Generation Functions
    339           */
    340          /*********************************************************************
    341           * @fn      SampleApp_HandleKeys
    342           *
    343           * @brief   Handles all key events for this device.
    344           *
    345           * @param   shift - true if in shift/alt.
    346           * @param   keys - bit field for key events. Valid entries:
    347           *                 HAL_KEY_SW_2
    348           *                 HAL_KEY_SW_1
    349           *
    350           * @return  none
    351           */

   \                                 In  segment BANKED_CODE, align 1, keep-with-next
    352          void SampleApp_HandleKeys( uint8 shift, uint8 keys )
   \                     SampleApp_HandleKeys:
    353          {
   \   000000   74F6         MOV     A,#-0xa
   \   000002   12....       LCALL   ?BANKED_ENTER_XDATA
   \   000005                ; Saved register size: 10
   \   000005                ; Auto size: 0
   \   000005   EA           MOV     A,R2
   \   000006   FE           MOV     R6,A
    354            (void)shift;  // Intentionally unreferenced parameter
    355            
    356            if ( keys & HAL_KEY_SW_1 )
   \   000007   A2E0         MOV     C,0xE0 /* A   */.0
   \   000009   5007         JNC     ??SampleApp_HandleKeys_0
    357            {
    358              /* This key sends the Flash Command is sent to Group 1.
    359               * This device will not receive the Flash Command from this
    360               * device (even if it belongs to group 1).
    361               */
    362              SampleApp_SendFlashMessage( SAMPLEAPP_FLASH_DURATION );
   \   00000B                ; Setup parameters for call to function SampleApp_SendFlashMessage
   \   00000B   7AE8         MOV     R2,#-0x18
   \   00000D   7B03         MOV     R3,#0x3
   \   00000F   12....       LCALL   ??SampleApp_SendFlashMessage?relay
    363            }
    364          
    365            if ( keys & HAL_KEY_SW_2 )
   \                     ??SampleApp_HandleKeys_0:
   \   000012   EE           MOV     A,R6
   \   000013   A2E1         MOV     C,0xE0 /* A   */.1
   \   000015   5024         JNC     ??SampleApp_HandleKeys_1
    366            {
    367              /* The Flashr Command is sent to Group 1.
    368               * This key toggles this device in and out of group 1.
    369               * If this device doesn't belong to group 1, this application
    370               * will not receive the Flash command sent to group 1.
    371               */
    372              aps_Group_t *grp;
    373              grp = aps_FindGroup( SAMPLEAPP_ENDPOINT, SAMPLEAPP_FLASH_GROUP );
    374              if ( grp )
   \   000017                ; Setup parameters for call to function aps_FindGroup
   \   000017   7A01         MOV     R2,#0x1
   \   000019   7B00         MOV     R3,#0x0
   \   00001B   7914         MOV     R1,#0x14
   \   00001D   12....       LCALL   ??aps_FindGroup?relay
   \   000020   8B..         MOV     ?V0 + 1,R3
   \   000022   EA           MOV     A,R2
   \   000023   45..         ORL     A,?V0 + 1
   \   000025   600B         JZ      ??SampleApp_HandleKeys_2
    375              {
    376                // Remove from the group
    377                aps_RemoveGroup( SAMPLEAPP_ENDPOINT, SAMPLEAPP_FLASH_GROUP );
   \   000027                ; Setup parameters for call to function aps_RemoveGroup
   \   000027   7A01         MOV     R2,#0x1
   \   000029   7B00         MOV     R3,#0x0
   \   00002B   7914         MOV     R1,#0x14
   \   00002D   12....       LCALL   ??aps_RemoveGroup?relay
   \   000030   8009         SJMP    ??SampleApp_HandleKeys_1
    378              }
    379              else
    380              {
    381                // Add to the flash group
    382                aps_AddGroup( SAMPLEAPP_ENDPOINT, &SampleApp_Group );
   \                     ??SampleApp_HandleKeys_2:
   \   000032                ; Setup parameters for call to function aps_AddGroup
   \   000032   7A..         MOV     R2,#SampleApp_Group & 0xff
   \   000034   7B..         MOV     R3,#(SampleApp_Group >> 8) & 0xff
   \   000036   7914         MOV     R1,#0x14
   \   000038   12....       LCALL   ??aps_AddGroup?relay
    383              }
    384            }
    385          }
   \                     ??SampleApp_HandleKeys_1:
   \   00003B                REQUIRE ?Subroutine2
   \   00003B                ; // Fall through to label ?Subroutine2

   \                                 In  segment BANKED_CODE, align 1, keep-with-next
   \                     ?Subroutine2:
   \   000000   7F02         MOV     R7,#0x2
   \   000002   02....       LJMP    ?BANKED_LEAVE_XDATA
    386          
    387          /*********************************************************************
    388           * LOCAL FUNCTIONS
    389           */
    390          
    391          /*********************************************************************
    392           * @fn      SampleApp_MessageMSGCB
    393           *
    394           * @brief   Data message processor callback.  This function processes
    395           *          any incoming data - probably from other devices.  So, based
    396           *          on cluster ID, perform the intended action.
    397           *
    398           * @param   none
    399           *
    400           * @return  none
    401           */

   \                                 In  segment BANKED_CODE, align 1, keep-with-next
    402          void SampleApp_MessageMSGCB( afIncomingMSGPacket_t *pkt ) //接收数据
   \                     SampleApp_MessageMSGCB:
    403          {
   \   000000   74F4         MOV     A,#-0xc
   \   000002   12....       LCALL   ?BANKED_ENTER_XDATA
   \   000005                ; Saved register size: 12
   \   000005                ; Auto size: 0
   \   000005   EA           MOV     A,R2
   \   000006   FE           MOV     R6,A
   \   000007   EB           MOV     A,R3
   \   000008   FF           MOV     R7,A
    404            uint16 flashTime;
    405          
    406            switch ( pkt->clusterId )
   \   000009   EE           MOV     A,R6
   \   00000A   2421         ADD     A,#0x21
   \   00000C   F5..         MOV     ?V0 + 0,A
   \   00000E   EF           MOV     A,R7
   \   00000F   3400         ADDC    A,#0x0
   \   000011   F5..         MOV     ?V0 + 1,A
   \   000013   8E82         MOV     DPL,R6
   \   000015   8F83         MOV     DPH,R7
   \   000017   A3           INC     DPTR
   \   000018   A3           INC     DPTR
   \   000019   A3           INC     DPTR
   \   00001A   A3           INC     DPTR
   \   00001B   E0           MOVX    A,@DPTR
   \   00001C   F5..         MOV     ?V0 + 2,A
   \   00001E   A3           INC     DPTR
   \   00001F   E0           MOVX    A,@DPTR
   \   000020   F5..         MOV     ?V0 + 3,A
   \   000022   78..         MOV     R0,#?V0 + 2
   \   000024   12....       LCALL   ?US_SWITCH_DENSE
   \                     `?<Jumptable for SampleApp_MessageMSGCB>_0`:
   \   000027   0100         DW        1
   \   000029   01           DB        1
   \   00002A   ....         DW        ??SampleApp_MessageMSGCB_0
   \   00002C   ....         DW        ??SampleApp_MessageMSGCB_1
   \   00002E   ....         DW        ??SampleApp_MessageMSGCB_2
    407            {
    408              case SAMPLEAPP_P2P_CLUSTERID:
    409          //      HalUARTWrite(0, "Rx:", 3);       //提示接收到数据
    410          //      HalUARTWrite(0, pkt->cmd.Data, pkt->cmd.DataLength); //串口输出接收到的数据
    411          //      HalUARTWrite(0, "\n", 1);         // 回车换行
    412                break; 
    413              
    414              case SAMPLEAPP_PERIODIC_CLUSTERID:
    415                HalUARTWrite(0, "Rx:", 3);        //提示信息
   \                     ??SampleApp_MessageMSGCB_1:
   \   000030                ; Setup parameters for call to function HalUARTWrite
   \   000030   7C03         MOV     R4,#0x3
   \   000032   7D00         MOV     R5,#0x0
   \   000034   7A..         MOV     R2,#`?<Constant "Rx:">` & 0xff
   \   000036   7B..         MOV     R3,#(`?<Constant "Rx:">` >> 8) & 0xff
   \   000038   7900         MOV     R1,#0x0
   \   00003A   12....       LCALL   ??HalUARTWrite?relay
    416                HalUARTWrite(0, pkt->cmd.Data, pkt->cmd.DataLength); //输出接收到的数据
   \   00003D                ; Setup parameters for call to function HalUARTWrite
   \   00003D   EE           MOV     A,R6
   \   00003E   241F         ADD     A,#0x1f
   \   000040   F582         MOV     DPL,A
   \   000042   EF           MOV     A,R7
   \   000043   3400         ADDC    A,#0x0
   \   000045   F583         MOV     DPH,A
   \   000047   E0           MOVX    A,@DPTR
   \   000048   FC           MOV     R4,A
   \   000049   A3           INC     DPTR
   \   00004A   E0           MOVX    A,@DPTR
   \   00004B   FD           MOV     R5,A
   \   00004C   85..82       MOV     DPL,?V0 + 0
   \   00004F   85..83       MOV     DPH,?V0 + 1
   \   000052   E0           MOVX    A,@DPTR
   \   000053   FA           MOV     R2,A
   \   000054   A3           INC     DPTR
   \   000055   E0           MOVX    A,@DPTR
   \   000056   FB           MOV     R3,A
   \   000057   7900         MOV     R1,#0x0
   \   000059   12....       LCALL   ??HalUARTWrite?relay
    417                HalUARTWrite(0, "\n", 1);         //回车换行
   \   00005C                ; Setup parameters for call to function HalUARTWrite
   \   00005C   7C01         MOV     R4,#0x1
   \   00005E   7D00         MOV     R5,#0x0
   \   000060   7A..         MOV     R2,#`?<Constant "\\n">` & 0xff
   \   000062   7B..         MOV     R3,#(`?<Constant "\\n">` >> 8) & 0xff
   \   000064   7900         MOV     R1,#0x0
   \   000066   12....       LCALL   ??HalUARTWrite?relay
    418                break;
   \   000069   8037         SJMP    ??SampleApp_MessageMSGCB_0
    419          
    420              case SAMPLEAPP_FLASH_CLUSTERID:     //此实验没有使用，到后面实验详解
    421                flashTime = BUILD_UINT16(pkt->cmd.Data[1], pkt->cmd.Data[2] );
    422                HalLedBlink( HAL_LED_4, 4, 50, (flashTime / 4) );
   \                     ??SampleApp_MessageMSGCB_2:
   \   00006B   85..82       MOV     DPL,?V0 + 0
   \   00006E   85..83       MOV     DPH,?V0 + 1
   \   000071   E0           MOVX    A,@DPTR
   \   000072   F8           MOV     R0,A
   \   000073   A3           INC     DPTR
   \   000074   E0           MOVX    A,@DPTR
   \   000075   F9           MOV     R1,A
   \   000076                ; Setup parameters for call to function HalLedBlink
   \   000076   8882         MOV     DPL,R0
   \   000078   8983         MOV     DPH,R1
   \   00007A   A3           INC     DPTR
   \   00007B   E0           MOVX    A,@DPTR
   \   00007C   FA           MOV     R2,A
   \   00007D   8882         MOV     DPL,R0
   \   00007F   8983         MOV     DPH,R1
   \   000081   A3           INC     DPTR
   \   000082   A3           INC     DPTR
   \   000083   E0           MOVX    A,@DPTR
   \   000084   F9           MOV     R1,A
   \   000085   EA           MOV     A,R2
   \   000086   2400         ADD     A,#0x0
   \   000088   F5..         MOV     ?V0 + 0,A
   \   00008A   E4           CLR     A
   \   00008B   39           ADDC    A,R1
   \   00008C   F5..         MOV     ?V0 + 1,A
   \   00008E   7402         MOV     A,#0x2
   \   000090   78..         MOV     R0,#?V0 + 0
   \   000092   12....       LCALL   ?US_SHR
   \   000095   AC..         MOV     R4,?V0 + 0
   \   000097   AD..         MOV     R5,?V0 + 1
   \   000099   7B32         MOV     R3,#0x32
   \   00009B   7A04         MOV     R2,#0x4
   \   00009D   7908         MOV     R1,#0x8
   \   00009F   12....       LCALL   ??HalLedBlink?relay
    423                break;
    424            }
    425          }
   \                     ??SampleApp_MessageMSGCB_0:
   \   0000A2   02....       LJMP    ?Subroutine1 & 0xFFFF
    426          
    427          /*********************************************************************
    428           * @fn      SampleApp_SendPeriodicMessage
    429           *
    430           * @brief   Send the periodic message.
    431           *
    432           * @param   none
    433           *
    434           * @return  none
    435           */

   \                                 In  segment BANKED_CODE, align 1, keep-with-next
    436          void SampleApp_SendPeriodicMessage( afIncomingMSGPacket_t *pkt )
   \                     SampleApp_SendPeriodicMessage:
    437          {
   \   000000   74F5         MOV     A,#-0xb
   \   000002   12....       LCALL   ?BANKED_ENTER_XDATA
   \   000005                ; Saved register size: 11
   \   000005                ; Auto size: 8
   \   000005   74F8         MOV     A,#-0x8
   \   000007   12....       LCALL   ?ALLOC_XSTACK8
    438          //  SampleApp_Periodic_DstAddr.addrMode = (afAddrMode_t)Addr64Bit;
    439          //  uint8 DestMacA[8]={0x25, 0x22, 0x25, 0x07, 0x00, 0x4B, 0x12, 0x00}; 
    440          //  osal_memcpy(SampleApp_Periodic_DstAddr.addr.extAddr,DestMacA,8);
    441            
    442            uint8 end_mark[6],Signal_strength[2];
    443            int8  RRSSI;
    444            RRSSI = -pkt->rssi;
   \   00000A   EA           MOV     A,R2
   \   00000B   2418         ADD     A,#0x18
   \   00000D   F582         MOV     DPL,A
   \   00000F   EB           MOV     A,R3
   \   000010   3400         ADDC    A,#0x0
   \   000012   F583         MOV     DPH,A
   \   000014   E0           MOVX    A,@DPTR
   \   000015   F4           CPL     A
   \   000016   04           INC     A
   \   000017   F8           MOV     R0,A
    445            
    446            Signal_strength[0] = RRSSI/10+48;
   \   000018   75F00A       MOV     B,#0xa
   \   00001B   12....       LCALL   ?SC_DIV_MOD
   \   00001E   2430         ADD     A,#0x30
   \   000020   85..82       MOV     DPL,?XSP + 0
   \   000023   85..83       MOV     DPH,?XSP + 1
   \   000026   F0           MOVX    @DPTR,A
    447            Signal_strength[1] = RRSSI%10+48;
   \   000027   E8           MOV     A,R0
   \   000028   75F00A       MOV     B,#0xa
   \   00002B   12....       LCALL   ?SC_DIV_MOD
   \   00002E   E5F0         MOV     A,B
   \   000030   2430         ADD     A,#0x30
   \   000032   C0E0         PUSH    A
   \   000034   7401         MOV     A,#0x1
   \   000036   12....       LCALL   ?XSTACK_DISP0_8
   \   000039   D0E0         POP     A
   \   00003B   F0           MOVX    @DPTR,A
    448            
    449            osal_memcpy( end_mark, "002", 3 );
   \   00003C                ; Setup parameters for call to function osal_memcpy
   \   00003C   75....       MOV     ?V0 + 0,#`?<Constant "002">` & 0xff
   \   00003F   75....       MOV     ?V0 + 1,#(`?<Constant "002">` >> 8) & 0xff
   \   000042   75..00       MOV     ?V0 + 2,#0x0
   \   000045   78..         MOV     R0,#?V0 + 0
   \   000047   12....       LCALL   ?PUSH_XSTACK_I_THREE
   \   00004A   7C03         MOV     R4,#0x3
   \   00004C   7D00         MOV     R5,#0x0
   \   00004E   7405         MOV     A,#0x5
   \   000050   12....       LCALL   ?XSTACK_DISP0_8
   \   000053   12....       LCALL   ?Subroutine3 & 0xFFFF
   \                     ??CrossCallReturnLabel_0:
   \   000056   12....       LCALL   ?DEALLOC_XSTACK8
    450            osal_memcpy( &end_mark[3], " ", 1 );
   \   000059                ; Setup parameters for call to function osal_memcpy
   \   000059   75....       MOV     ?V0 + 0,#`?<Constant " ">` & 0xff
   \   00005C   75....       MOV     ?V0 + 1,#(`?<Constant " ">` >> 8) & 0xff
   \   00005F   78..         MOV     R0,#?V0 + 0
   \   000061   12....       LCALL   ?PUSH_XSTACK_I_THREE
   \   000064   7C01         MOV     R4,#0x1
   \   000066   7D00         MOV     R5,#0x0
   \   000068   7408         MOV     A,#0x8
   \   00006A   12....       LCALL   ?XSTACK_DISP0_8
   \   00006D   12....       LCALL   ?Subroutine3 & 0xFFFF
   \                     ??CrossCallReturnLabel_1:
   \   000070   12....       LCALL   ?DEALLOC_XSTACK8
    451            osal_memcpy( &end_mark[4], Signal_strength, 2 ); 
   \   000073                ; Setup parameters for call to function osal_memcpy
   \   000073   85..82       MOV     DPL,?XSP + 0
   \   000076   85..83       MOV     DPH,?XSP + 1
   \   000079   A982         MOV     R1,DPL
   \   00007B   AA83         MOV     R2,DPH
   \   00007D   89..         MOV     ?V0 + 0,R1
   \   00007F   8A..         MOV     ?V0 + 1,R2
   \   000081   78..         MOV     R0,#?V0 + 0
   \   000083   12....       LCALL   ?PUSH_XSTACK_I_THREE
   \   000086   7C02         MOV     R4,#0x2
   \   000088   7D00         MOV     R5,#0x0
   \   00008A   7409         MOV     A,#0x9
   \   00008C   12....       LCALL   ?XSTACK_DISP0_8
   \   00008F   12....       LCALL   ?Subroutine3 & 0xFFFF
   \                     ??CrossCallReturnLabel_2:
   \   000092   12....       LCALL   ?DEALLOC_XSTACK8
    452            if ( AF_DataRequest( &SampleApp_Periodic_DstAddr, &SampleApp_epDesc,
    453                                 SAMPLEAPP_PERIODIC_CLUSTERID,
    454                                 6,
    455                                 end_mark,
    456                                 &SampleApp_TransID,
    457                                 AF_DISCV_ROUTE,
    458                                 AF_DEFAULT_RADIUS ) == afStatus_SUCCESS )
   \   000095                ; Setup parameters for call to function AF_DataRequest
   \   000095   75..1E       MOV     ?V0 + 0,#0x1e
   \   000098   78..         MOV     R0,#?V0 + 0
   \   00009A   12....       LCALL   ?PUSH_XSTACK_I_ONE
   \   00009D   75....       MOV     ?V0 + 0,#SampleApp_TransID & 0xff
   \   0000A0   75....       MOV     ?V0 + 1,#(SampleApp_TransID >> 8) & 0xff
   \   0000A3   78..         MOV     R0,#?V0 + 0
   \   0000A5   12....       LCALL   ?PUSH_XSTACK_I_TWO
   \   0000A8   7405         MOV     A,#0x5
   \   0000AA   12....       LCALL   ?XSTACK_DISP0_8
   \   0000AD   8582..       MOV     ?V0 + 0,DPL
   \   0000B0   8583..       MOV     ?V0 + 1,DPH
   \   0000B3   78..         MOV     R0,#?V0 + 0
   \   0000B5   12....       LCALL   ?PUSH_XSTACK_I_TWO
   \   0000B8   75..06       MOV     ?V0 + 0,#0x6
   \   0000BB   75..00       MOV     ?V0 + 1,#0x0
   \   0000BE   78..         MOV     R0,#?V0 + 0
   \   0000C0   12....       LCALL   ?PUSH_XSTACK_I_TWO
   \   0000C3   75..01       MOV     ?V0 + 0,#0x1
   \   0000C6   78..         MOV     R0,#?V0 + 0
   \   0000C8   12....       LCALL   ?PUSH_XSTACK_I_TWO
   \   0000CB   7920         MOV     R1,#0x20
   \   0000CD   7C..         MOV     R4,#SampleApp_epDesc & 0xff
   \   0000CF   7D..         MOV     R5,#(SampleApp_epDesc >> 8) & 0xff
   \   0000D1   7A..         MOV     R2,#SampleApp_Periodic_DstAddr & 0xff
   \   0000D3   7B..         MOV     R3,#(SampleApp_Periodic_DstAddr >> 8) & 0xff
   \   0000D5   12....       LCALL   ??AF_DataRequest?relay
   \   0000D8   7409         MOV     A,#0x9
   \   0000DA   12....       LCALL   ?DEALLOC_XSTACK8
    459            {
    460            }
    461            else
    462            {
    463              // Error occurred in request to send.
    464            }
    465            
    466          //  uint8 DestMacB[8]={0XB9, 0x27, 0x25, 0x07, 0x00, 0x4B, 0x12, 0x00};
    467          //  osal_memcpy(SampleApp_Periodic_DstAddr.addr.extAddr,DestMacB,8);
    468          //  if ( AF_DataRequest( &SampleApp_Periodic_DstAddr, &SampleApp_epDesc,
    469          //                       SAMPLEAPP_PERIODIC_CLUSTERID,
    470          //                       3,
    471          //                       end_mark,
    472          //                       &SampleApp_TransID,
    473          //                       AF_DISCV_ROUTE,
    474          //                       AF_DEFAULT_RADIUS ) == afStatus_SUCCESS )
    475          //  {
    476          //  }
    477          //  else
    478          //  {
    479          //    // Error occurred in request to send.
    480          //  }
    481          }
   \   0000DD   7408         MOV     A,#0x8
   \   0000DF   12....       LCALL   ?DEALLOC_XSTACK8
   \   0000E2   02....       LJMP    ?Subroutine0 & 0xFFFF

   \                                 In  segment BANKED_CODE, align 1, keep-with-next
   \                     ?Subroutine3:
   \   000000   AA82         MOV     R2,DPL
   \   000002   AB83         MOV     R3,DPH
   \   000004                REQUIRE ??Subroutine4_0
   \   000004                ; // Fall through to label ??Subroutine4_0
    482          
    483          /*********************************************************************
    484           * @fn      SampleApp_SendFlashMessage
    485           *
    486           * @brief   Send the flash message to group 1.
    487           *
    488           * @param   flashTime - in milliseconds
    489           *
    490           * @return  none
    491           */

   \                                 In  segment BANKED_CODE, align 1, keep-with-next
    492          void SampleApp_SendFlashMessage( uint16 flashTime )
   \                     SampleApp_SendFlashMessage:
    493          {
   \   000000   74F6         MOV     A,#-0xa
   \   000002   12....       LCALL   ?BANKED_ENTER_XDATA
   \   000005                ; Saved register size: 10
   \   000005                ; Auto size: 3
   \   000005   74FD         MOV     A,#-0x3
   \   000007   12....       LCALL   ?ALLOC_XSTACK8
    494            uint8 buffer[3];
    495            buffer[0] = (uint8)(SampleAppFlashCounter++);
   \   00000A   90....       MOV     DPTR,#SampleAppFlashCounter
   \   00000D   E0           MOVX    A,@DPTR
   \   00000E   85..82       MOV     DPL,?XSP + 0
   \   000011   85..83       MOV     DPH,?XSP + 1
   \   000014   F0           MOVX    @DPTR,A
   \   000015   90....       MOV     DPTR,#SampleAppFlashCounter
   \   000018   E0           MOVX    A,@DPTR
   \   000019   04           INC     A
   \   00001A   F0           MOVX    @DPTR,A
    496            buffer[1] = LO_UINT16( flashTime );
   \   00001B   7401         MOV     A,#0x1
   \   00001D   12....       LCALL   ?XSTACK_DISP0_8
   \   000020   EA           MOV     A,R2
   \   000021   F0           MOVX    @DPTR,A
    497            buffer[2] = HI_UINT16( flashTime );
   \   000022   7402         MOV     A,#0x2
   \   000024   12....       LCALL   ?XSTACK_DISP0_8
   \   000027   EB           MOV     A,R3
   \   000028   F0           MOVX    @DPTR,A
    498          
    499            if ( AF_DataRequest( &SampleApp_Flash_DstAddr, &SampleApp_epDesc,
    500                                 SAMPLEAPP_FLASH_CLUSTERID,
    501                                 3,
    502                                 buffer,
    503                                 &SampleApp_TransID,
    504                                 AF_DISCV_ROUTE,
    505                                 AF_DEFAULT_RADIUS ) == afStatus_SUCCESS )
   \   000029                ; Setup parameters for call to function AF_DataRequest
   \   000029   75..1E       MOV     ?V0 + 0,#0x1e
   \   00002C   78..         MOV     R0,#?V0 + 0
   \   00002E   12....       LCALL   ?PUSH_XSTACK_I_ONE
   \   000031   75....       MOV     ?V0 + 0,#SampleApp_TransID & 0xff
   \   000034   75....       MOV     ?V0 + 1,#(SampleApp_TransID >> 8) & 0xff
   \   000037   78..         MOV     R0,#?V0 + 0
   \   000039   12....       LCALL   ?PUSH_XSTACK_I_TWO
   \   00003C   7403         MOV     A,#0x3
   \   00003E   12....       LCALL   ?XSTACK_DISP0_8
   \   000041   8582..       MOV     ?V0 + 0,DPL
   \   000044   8583..       MOV     ?V0 + 1,DPH
   \   000047   78..         MOV     R0,#?V0 + 0
   \   000049   12....       LCALL   ?PUSH_XSTACK_I_TWO
   \   00004C   75..03       MOV     ?V0 + 0,#0x3
   \   00004F   75..00       MOV     ?V0 + 1,#0x0
   \   000052   78..         MOV     R0,#?V0 + 0
   \   000054   12....       LCALL   ?PUSH_XSTACK_I_TWO
   \   000057   75..02       MOV     ?V0 + 0,#0x2
   \   00005A   78..         MOV     R0,#?V0 + 0
   \   00005C   12....       LCALL   ?PUSH_XSTACK_I_TWO
   \   00005F   7920         MOV     R1,#0x20
   \   000061   7C..         MOV     R4,#SampleApp_epDesc & 0xff
   \   000063   7D..         MOV     R5,#(SampleApp_epDesc >> 8) & 0xff
   \   000065   7A..         MOV     R2,#SampleApp_Flash_DstAddr & 0xff
   \   000067   7B..         MOV     R3,#(SampleApp_Flash_DstAddr >> 8) & 0xff
   \   000069   12....       LCALL   ??AF_DataRequest?relay
   \   00006C   7409         MOV     A,#0x9
   \   00006E   12....       LCALL   ?DEALLOC_XSTACK8
    506            {
    507            }
    508            else
    509            {
    510              // Error occurred in request to send.
    511            }
    512          }
   \   000071   7403         MOV     A,#0x3
   \   000073   12....       LCALL   ?DEALLOC_XSTACK8
   \   000076   02....       LJMP    ?Subroutine2 & 0xFFFF

   \                                 In  segment BANK_RELAYS, align 1
   \                     ??SampleApp_Init?relay:
   \   000000   12....       LCALL   ?BDISPATCH
   \   000003   ......       DC24    SampleApp_Init

   \                                 In  segment BANK_RELAYS, align 1
   \                     ??SampleApp_ProcessEvent?relay:
   \   000000   12....       LCALL   ?BDISPATCH
   \   000003   ......       DC24    SampleApp_ProcessEvent

   \                                 In  segment BANK_RELAYS, align 1
   \                     ??SampleApp_HandleKeys?relay:
   \   000000   12....       LCALL   ?BDISPATCH
   \   000003   ......       DC24    SampleApp_HandleKeys

   \                                 In  segment BANK_RELAYS, align 1
   \                     ??SampleApp_MessageMSGCB?relay:
   \   000000   12....       LCALL   ?BDISPATCH
   \   000003   ......       DC24    SampleApp_MessageMSGCB

   \                                 In  segment BANK_RELAYS, align 1
   \                     ??SampleApp_SendPeriodicMessage?relay:
   \   000000   12....       LCALL   ?BDISPATCH
   \   000003   ......       DC24    SampleApp_SendPeriodicMessage

   \                                 In  segment BANK_RELAYS, align 1
   \                     ??SampleApp_SendFlashMessage?relay:
   \   000000   12....       LCALL   ?BDISPATCH
   \   000003   ......       DC24    SampleApp_SendFlashMessage

   \                                 In  segment XDATA_ROM_C, align 1
   \                     `?<Constant "UartInit OK\\n">`:
   \   000000   55617274     DB "UartInit OK\012"
   \            496E6974
   \            204F4B0A
   \            00      

   \                                 In  segment XDATA_ROM_C, align 1
   \                     `?<Constant "Group 1">`:
   \   000000   47726F75     DB "Group 1"
   \            70203100

   \                                 In  segment XDATA_ROM_C, align 1
   \                     `?<Constant "SampleApp">`:
   \   000000   53616D70     DB "SampleApp"
   \            6C654170
   \            7000    

   \                                 In  segment XDATA_ROM_C, align 1
   \                     `?<Constant "Rx:">`:
   \   000000   52783A00     DB "Rx:"

   \                                 In  segment XDATA_ROM_C, align 1
   \                     `?<Constant "\\n">`:
   \   000000   0A00         DB "\012"

   \                                 In  segment XDATA_ROM_C, align 1
   \                     `?<Constant "002">`:
   \   000000   30303200     DB "002"

   \                                 In  segment XDATA_ROM_C, align 1
   \                     `?<Constant " ">`:
   \   000000   2000         DB " "
    513          /*********************************************************************
    514          *********************************************************************/

   Maximum stack usage in bytes:

     Function                       ISTACK PSTACK XSTACK
     --------                       ------ ------ ------
     SampleApp_HandleKeys               0      0     22
       -> SampleApp_SendFlashMessage
                                        0      0     20
       -> aps_FindGroup                 0      0     20
       -> aps_RemoveGroup               0      0     20
       -> aps_AddGroup                  0      0     20
     SampleApp_Init                     0      0     14
       -> MT_UartInit                   0      0     22
       -> MT_UartRegisterTaskID         0      0     22
       -> HalUARTWrite                  0      0     22
       -> afRegister                    0      0     22
       -> RegisterForKeys               0      0     22
       -> osal_memcpy                   0      0     28
       -> aps_AddGroup                  0      0     22
       -> HalLcdWriteString             0      0     22
     SampleApp_MessageMSGCB             0      0     24
       -> HalUARTWrite                  0      0     24
       -> HalUARTWrite                  0      0     24
       -> HalUARTWrite                  0      0     24
       -> HalLedBlink                   0      0     24
     SampleApp_ProcessEvent             0      0     12
       -> osal_msg_receive              0      0     24
       -> osal_start_timerEx            0      0     24
       -> osal_msg_deallocate           0      0     24
       -> osal_msg_receive              0      0     24
       -> SampleApp_HandleKeys          0      0     24
       -> SampleApp_MessageMSGCB        0      0     24
       -> SampleApp_SendPeriodicMessage
                                        0      0     24
       -> osal_rand                     0      0     24
       -> osal_start_timerEx            0      0     24
     SampleApp_SendFlashMessage         1      0     32
       -> AF_DataRequest                0      0     44
     SampleApp_SendPeriodicMessage      1      0     40
       -> osal_memcpy                   0      0     44
       -> osal_memcpy                   0      0     44
       -> osal_memcpy                   0      0     44
       -> AF_DataRequest                0      0     56


   Segment part sizes:

     Function/Label                        Bytes
     --------------                        -----
     SampleApp_ClusterList                    4
     SampleApp_SimpleDesc                    12
     SampleApp_epDesc                         6
     SampleApp_TaskID                         1
     SampleApp_NwkState                       1
     SampleApp_TransID                        1
     SampleApp_Periodic_DstAddr              12
     SampleApp_Flash_DstAddr                 12
     SampleApp_Group                         18
     SampleAppPeriodicCounter                 1
     SampleAppFlashCounter                    1
     SampleApp_Init                         174
     ?Subroutine0                             5
     ??Subroutine4_0                          6
     SampleApp_ProcessEvent                 175
     ?Subroutine1                             5
     SampleApp_HandleKeys                    59
     ?Subroutine2                             5
     SampleApp_MessageMSGCB                 165
     SampleApp_SendPeriodicMessage          229
     ?Subroutine3                             4
     SampleApp_SendFlashMessage             121
     ??SampleApp_Init?relay                   6
     ??SampleApp_ProcessEvent?relay           6
     ??SampleApp_HandleKeys?relay             6
     ??SampleApp_MessageMSGCB?relay           6
     ??SampleApp_SendPeriodicMessage?relay    6
     ??SampleApp_SendFlashMessage?relay       6
     ?<Constant "UartInit OK\n">             13
     ?<Constant "Group 1">                    8
     ?<Constant "SampleApp">                 10
     ?<Constant "Rx:">                        4
     ?<Constant "\n">                         2
     ?<Constant "002">                        4
     ?<Constant " ">                          2

 
 948 bytes in segment BANKED_CODE
  36 bytes in segment BANK_RELAYS
  59 bytes in segment XDATA_ROM_C
  53 bytes in segment XDATA_Z
 
 984 bytes of CODE  memory
  59 bytes of CONST memory
  53 bytes of XDATA memory

Errors: none
Warnings: none
